(lp0
S'poi'
p1
aS'salary'
p2
aS'to_messages'
p3
aS'total_payments'
p4
aS'bonus'
p5
aS'total_stock_value'
p6
aS'expenses'
p7
aS'from_poi_to_this_person'
p8
aS'exercised_stock_options'
p9
aS'from_messages'
p10
aS'other'
p11
aS'from_this_person_to_poi'
p12
aS'shared_receipt_with_poi'
p13
aS'restricted_stock'
p14
a.